; ModuleID = '25/274.c'
source_filename = "25/274.c"
target datalayout = "e-m:e-p270:32:32-p271:32:32-p272:64:64-i64:64-f80:128-n8:16:32:64-S128"
target triple = "x86_64-pc-linux-gnu"

@.str = private unnamed_addr constant [3 x i8] c"%d\00", align 1
@.str.1 = private unnamed_addr constant [2 x i8] c"\0A\00", align 1

; Function Attrs: noinline nounwind uwtable
define dso_local i32 @main() #0 {
  %1 = alloca i32, align 4
  %2 = alloca [100 x i32], align 16
  %3 = alloca i32, align 4
  %4 = alloca i32, align 4
  %5 = alloca i32, align 4
  %6 = alloca i32, align 4
  %7 = alloca i32, align 4
  store i32 0, i32* %1, align 4
  %8 = bitcast [100 x i32]* %2 to i8*
  call void @llvm.memset.p0i8.i64(i8* align 16 %8, i8 0, i64 400, i1 false)
  store i32 0, i32* %4, align 4
  %9 = call i32 (i8*, ...) @__isoc99_scanf(i8* getelementptr inbounds ([3 x i8], [3 x i8]* @.str, i64 0, i64 0), i32* %5)
  %10 = load i32, i32* %4, align 4
  %11 = sext i32 %10 to i64
  %12 = getelementptr inbounds [100 x i32], [100 x i32]* %2, i64 0, i64 %11
  store i32 1, i32* %12, align 4
  store i32 1, i32* %3, align 4
  br label %13

13:                                               ; preds = %74, %0
  %14 = load i32, i32* %3, align 4
  %15 = load i32, i32* %5, align 4
  %16 = icmp sle i32 %14, %15
  br i1 %16, label %17, label %77

17:                                               ; preds = %13
  store i32 0, i32* %6, align 4
  br label %18

18:                                               ; preds = %37, %17
  %19 = load i32, i32* %6, align 4
  %20 = icmp slt i32 %19, 100
  br i1 %20, label %21, label %40

21:                                               ; preds = %18
  %22 = load i32, i32* %6, align 4
  %23 = sext i32 %22 to i64
  %24 = getelementptr inbounds [100 x i32], [100 x i32]* %2, i64 0, i64 %23
  %25 = load i32, i32* %24, align 4
  %26 = icmp ne i32 %25, 0
  br i1 %26, label %27, label %36

27:                                               ; preds = %21
  %28 = load i32, i32* %6, align 4
  %29 = sext i32 %28 to i64
  %30 = getelementptr inbounds [100 x i32], [100 x i32]* %2, i64 0, i64 %29
  %31 = load i32, i32* %30, align 4
  %32 = mul nsw i32 %31, 2
  %33 = load i32, i32* %6, align 4
  %34 = sext i32 %33 to i64
  %35 = getelementptr inbounds [100 x i32], [100 x i32]* %2, i64 0, i64 %34
  store i32 %32, i32* %35, align 4
  br label %36

36:                                               ; preds = %27, %21
  br label %37

37:                                               ; preds = %36
  %38 = load i32, i32* %6, align 4
  %39 = add nsw i32 %38, 1
  store i32 %39, i32* %6, align 4
  br label %18

40:                                               ; preds = %18
  store i32 0, i32* %6, align 4
  br label %41

41:                                               ; preds = %70, %40
  %42 = load i32, i32* %6, align 4
  %43 = icmp slt i32 %42, 100
  br i1 %43, label %44, label %73

44:                                               ; preds = %41
  %45 = load i32, i32* %6, align 4
  %46 = sext i32 %45 to i64
  %47 = getelementptr inbounds [100 x i32], [100 x i32]* %2, i64 0, i64 %46
  %48 = load i32, i32* %47, align 4
  %49 = icmp sge i32 %48, 10
  br i1 %49, label %50, label %69

50:                                               ; preds = %44
  %51 = load i32, i32* %6, align 4
  %52 = sext i32 %51 to i64
  %53 = getelementptr inbounds [100 x i32], [100 x i32]* %2, i64 0, i64 %52
  %54 = load i32, i32* %53, align 4
  %55 = srem i32 %54, 10
  %56 = load i32, i32* %6, align 4
  %57 = sext i32 %56 to i64
  %58 = getelementptr inbounds [100 x i32], [100 x i32]* %2, i64 0, i64 %57
  store i32 %55, i32* %58, align 4
  %59 = load i32, i32* %6, align 4
  %60 = add nsw i32 %59, 1
  %61 = sext i32 %60 to i64
  %62 = getelementptr inbounds [100 x i32], [100 x i32]* %2, i64 0, i64 %61
  %63 = load i32, i32* %62, align 4
  %64 = add nsw i32 %63, 1
  %65 = load i32, i32* %6, align 4
  %66 = add nsw i32 %65, 1
  %67 = sext i32 %66 to i64
  %68 = getelementptr inbounds [100 x i32], [100 x i32]* %2, i64 0, i64 %67
  store i32 %64, i32* %68, align 4
  br label %69

69:                                               ; preds = %50, %44
  br label %70

70:                                               ; preds = %69
  %71 = load i32, i32* %6, align 4
  %72 = add nsw i32 %71, 1
  store i32 %72, i32* %6, align 4
  br label %41

73:                                               ; preds = %41
  br label %74

74:                                               ; preds = %73
  %75 = load i32, i32* %3, align 4
  %76 = add nsw i32 %75, 1
  store i32 %76, i32* %3, align 4
  br label %13

77:                                               ; preds = %13
  store i32 99, i32* %3, align 4
  br label %78

78:                                               ; preds = %90, %77
  %79 = load i32, i32* %3, align 4
  %80 = icmp sge i32 %79, 0
  br i1 %80, label %81, label %93

81:                                               ; preds = %78
  %82 = load i32, i32* %3, align 4
  %83 = sext i32 %82 to i64
  %84 = getelementptr inbounds [100 x i32], [100 x i32]* %2, i64 0, i64 %83
  %85 = load i32, i32* %84, align 4
  %86 = icmp ne i32 %85, 0
  br i1 %86, label %87, label %89

87:                                               ; preds = %81
  %88 = load i32, i32* %3, align 4
  store i32 %88, i32* %7, align 4
  br label %93

89:                                               ; preds = %81
  br label %90

90:                                               ; preds = %89
  %91 = load i32, i32* %3, align 4
  %92 = add nsw i32 %91, -1
  store i32 %92, i32* %3, align 4
  br label %78

93:                                               ; preds = %87, %78
  %94 = load i32, i32* %7, align 4
  store i32 %94, i32* %3, align 4
  br label %95

95:                                               ; preds = %104, %93
  %96 = load i32, i32* %3, align 4
  %97 = icmp sge i32 %96, 0
  br i1 %97, label %98, label %107

98:                                               ; preds = %95
  %99 = load i32, i32* %3, align 4
  %100 = sext i32 %99 to i64
  %101 = getelementptr inbounds [100 x i32], [100 x i32]* %2, i64 0, i64 %100
  %102 = load i32, i32* %101, align 4
  %103 = call i32 (i8*, ...) @printf(i8* getelementptr inbounds ([3 x i8], [3 x i8]* @.str, i64 0, i64 0), i32 %102)
  br label %104

104:                                              ; preds = %98
  %105 = load i32, i32* %3, align 4
  %106 = add nsw i32 %105, -1
  store i32 %106, i32* %3, align 4
  br label %95

107:                                              ; preds = %95
  %108 = call i32 (i8*, ...) @printf(i8* getelementptr inbounds ([2 x i8], [2 x i8]* @.str.1, i64 0, i64 0))
  ret i32 0
}

; Function Attrs: argmemonly nounwind willreturn
declare void @llvm.memset.p0i8.i64(i8* nocapture writeonly, i8, i64, i1 immarg) #1

declare dso_local i32 @__isoc99_scanf(i8*, ...) #2

declare dso_local i32 @printf(i8*, ...) #2


!llvm.module.flags = !{!0}
!llvm.ident = !{!1}

!0 = !{i32 1, !"wchar_size", i32 4}
!1 = !{!"clang version 10.0.0-4ubuntu1 "}
